; ModuleID = '58/1022.c'
source_filename = "58/1022.c"
target datalayout = "e-m:e-p270:32:32-p271:32:32-p272:64:64-i64:64-f80:128-n8:16:32:64-S128"
target triple = "x86_64-pc-linux-gnu"

@.str = private unnamed_addr constant [3 x i8] c"%d\00", align 1
@.str.1 = private unnamed_addr constant [3 x i8] c"%c\00", align 1
@.str.2 = private unnamed_addr constant [4 x i8] c"%d\0A\00", align 1

; Function Attrs: noinline nounwind uwtable
define dso_local i32 @main() #0 {
  %1 = alloca i32, align 4
  %2 = alloca i32, align 4
  %3 = alloca i32, align 4
  %4 = alloca i32, align 4
  %5 = alloca [1000 x i32], align 16
  %6 = alloca i8, align 1
  %7 = alloca i8, align 1
  store i32 0, i32* %1, align 4
  %8 = bitcast [1000 x i32]* %5 to i8*
  call void @llvm.memset.p0i8.i64(i8* align 16 %8, i8 0, i64 4000, i1 false)
  %9 = call i32 (i8*, ...) @__isoc99_scanf(i8* getelementptr inbounds ([3 x i8], [3 x i8]* @.str, i64 0, i64 0), i32* %2)
  store i8 0, i8* %6, align 1
  store i8 0, i8* %7, align 1
  %10 = call i32 @getchar()
  store i32 1, i32* %3, align 4
  br label %11

11:                                               ; preds = %118, %0
  %12 = load i32, i32* %3, align 4
  %13 = load i32, i32* %2, align 4
  %14 = icmp sle i32 %12, %13
  br i1 %14, label %15, label %121

15:                                               ; preds = %11
  %16 = load i32, i32* %3, align 4
  %17 = sext i32 %16 to i64
  %18 = getelementptr inbounds [1000 x i32], [1000 x i32]* %5, i64 0, i64 %17
  store i32 1, i32* %18, align 4
  %19 = call i32 (i8*, ...) @__isoc99_scanf(i8* getelementptr inbounds ([3 x i8], [3 x i8]* @.str.1, i64 0, i64 0), i8* %6)
  %20 = load i8, i8* %6, align 1
  %21 = sext i8 %20 to i32
  %22 = icmp sge i32 %21, 65
  br i1 %22, label %23, label %27

23:                                               ; preds = %15
  %24 = load i8, i8* %6, align 1
  %25 = sext i8 %24 to i32
  %26 = icmp sle i32 %25, 90
  br i1 %26, label %39, label %27

27:                                               ; preds = %23, %15
  %28 = load i8, i8* %6, align 1
  %29 = sext i8 %28 to i32
  %30 = icmp sge i32 %29, 97
  br i1 %30, label %31, label %35

31:                                               ; preds = %27
  %32 = load i8, i8* %6, align 1
  %33 = sext i8 %32 to i32
  %34 = icmp sle i32 %33, 122
  br i1 %34, label %39, label %35

35:                                               ; preds = %31, %27
  %36 = load i8, i8* %6, align 1
  %37 = sext i8 %36 to i32
  %38 = icmp eq i32 %37, 95
  br i1 %38, label %39, label %48

39:                                               ; preds = %35, %31, %23
  %40 = load i32, i32* %3, align 4
  %41 = sext i32 %40 to i64
  %42 = getelementptr inbounds [1000 x i32], [1000 x i32]* %5, i64 0, i64 %41
  %43 = load i32, i32* %42, align 4
  %44 = mul nsw i32 %43, 1
  %45 = load i32, i32* %3, align 4
  %46 = sext i32 %45 to i64
  %47 = getelementptr inbounds [1000 x i32], [1000 x i32]* %5, i64 0, i64 %46
  store i32 %44, i32* %47, align 4
  br label %57

48:                                               ; preds = %35
  %49 = load i32, i32* %3, align 4
  %50 = sext i32 %49 to i64
  %51 = getelementptr inbounds [1000 x i32], [1000 x i32]* %5, i64 0, i64 %50
  %52 = load i32, i32* %51, align 4
  %53 = mul nsw i32 %52, 0
  %54 = load i32, i32* %3, align 4
  %55 = sext i32 %54 to i64
  %56 = getelementptr inbounds [1000 x i32], [1000 x i32]* %5, i64 0, i64 %55
  store i32 %53, i32* %56, align 4
  br label %57

57:                                               ; preds = %48, %39
  store i32 0, i32* %4, align 4
  br label %58

58:                                               ; preds = %114, %57
  %59 = load i32, i32* %4, align 4
  %60 = icmp slt i32 %59, 90
  br i1 %60, label %61, label %117

61:                                               ; preds = %58
  %62 = call i32 (i8*, ...) @__isoc99_scanf(i8* getelementptr inbounds ([3 x i8], [3 x i8]* @.str.1, i64 0, i64 0), i8* %7)
  %63 = load i8, i8* %7, align 1
  %64 = sext i8 %63 to i32
  %65 = icmp eq i32 %64, 10
  br i1 %65, label %66, label %67

66:                                               ; preds = %61
  br label %117

67:                                               ; preds = %61
  %68 = load i8, i8* %7, align 1
  %69 = sext i8 %68 to i32
  %70 = icmp eq i32 %69, 95
  br i1 %70, label %95, label %71

71:                                               ; preds = %67
  %72 = load i8, i8* %7, align 1
  %73 = sext i8 %72 to i32
  %74 = icmp sge i32 %73, 48
  br i1 %74, label %75, label %79

75:                                               ; preds = %71
  %76 = load i8, i8* %7, align 1
  %77 = sext i8 %76 to i32
  %78 = icmp sle i32 %77, 57
  br i1 %78, label %95, label %79

79:                                               ; preds = %75, %71
  %80 = load i8, i8* %7, align 1
  %81 = sext i8 %80 to i32
  %82 = icmp sge i32 %81, 65
  br i1 %82, label %83, label %87

83:                                               ; preds = %79
  %84 = load i8, i8* %7, align 1
  %85 = sext i8 %84 to i32
  %86 = icmp sle i32 %85, 90
  br i1 %86, label %95, label %87

87:                                               ; preds = %83, %79
  %88 = load i8, i8* %7, align 1
  %89 = sext i8 %88 to i32
  %90 = icmp sge i32 %89, 97
  br i1 %90, label %91, label %104

91:                                               ; preds = %87
  %92 = load i8, i8* %7, align 1
  %93 = sext i8 %92 to i32
  %94 = icmp sle i32 %93, 122
  br i1 %94, label %95, label %104

95:                                               ; preds = %91, %83, %75, %67
  %96 = load i32, i32* %3, align 4
  %97 = sext i32 %96 to i64
  %98 = getelementptr inbounds [1000 x i32], [1000 x i32]* %5, i64 0, i64 %97
  %99 = load i32, i32* %98, align 4
  %100 = mul nsw i32 %99, 1
  %101 = load i32, i32* %3, align 4
  %102 = sext i32 %101 to i64
  %103 = getelementptr inbounds [1000 x i32], [1000 x i32]* %5, i64 0, i64 %102
  store i32 %100, i32* %103, align 4
  br label %113

104:                                              ; preds = %91, %87
  %105 = load i32, i32* %3, align 4
  %106 = sext i32 %105 to i64
  %107 = getelementptr inbounds [1000 x i32], [1000 x i32]* %5, i64 0, i64 %106
  %108 = load i32, i32* %107, align 4
  %109 = mul nsw i32 %108, 0
  %110 = load i32, i32* %3, align 4
  %111 = sext i32 %110 to i64
  %112 = getelementptr inbounds [1000 x i32], [1000 x i32]* %5, i64 0, i64 %111
  store i32 %109, i32* %112, align 4
  br label %113

113:                                              ; preds = %104, %95
  br label %114

114:                                              ; preds = %113
  %115 = load i32, i32* %4, align 4
  %116 = add nsw i32 %115, 1
  store i32 %116, i32* %4, align 4
  br label %58

117:                                              ; preds = %66, %58
  br label %118

118:                                              ; preds = %117
  %119 = load i32, i32* %3, align 4
  %120 = add nsw i32 %119, 1
  store i32 %120, i32* %3, align 4
  br label %11

121:                                              ; preds = %11
  store i32 1, i32* %3, align 4
  br label %122

122:                                              ; preds = %132, %121
  %123 = load i32, i32* %3, align 4
  %124 = load i32, i32* %2, align 4
  %125 = icmp sle i32 %123, %124
  br i1 %125, label %126, label %135

126:                                              ; preds = %122
  %127 = load i32, i32* %3, align 4
  %128 = sext i32 %127 to i64
  %129 = getelementptr inbounds [1000 x i32], [1000 x i32]* %5, i64 0, i64 %128
  %130 = load i32, i32* %129, align 4
  %131 = call i32 (i8*, ...) @printf(i8* getelementptr inbounds ([4 x i8], [4 x i8]* @.str.2, i64 0, i64 0), i32 %130)
  br label %132

132:                                              ; preds = %126
  %133 = load i32, i32* %3, align 4
  %134 = add nsw i32 %133, 1
  store i32 %134, i32* %3, align 4
  br label %122

135:                                              ; preds = %122
  ret i32 0
}

; Function Attrs: argmemonly nounwind willreturn
declare void @llvm.memset.p0i8.i64(i8* nocapture writeonly, i8, i64, i1 immarg) #1

declare dso_local i32 @__isoc99_scanf(i8*, ...) #2

declare dso_local i32 @getchar() #2

declare dso_local i32 @printf(i8*, ...) #2


!llvm.module.flags = !{!0}
!llvm.ident = !{!1}

!0 = !{i32 1, !"wchar_size", i32 4}
!1 = !{!"clang version 10.0.0-4ubuntu1 "}
