; ModuleID = 'source-C-CXX/57/1022.c'
source_filename = "source-C-CXX/57/1022.c"
target datalayout = "e-m:e-p270:32:32-p271:32:32-p272:64:64-i64:64-f80:128-n8:16:32:64-S128"
target triple = "x86_64-pc-linux-gnu"

%struct._IO_FILE = type { i32, i8*, i8*, i8*, i8*, i8*, i8*, i8*, i8*, i8*, i8*, i8*, %struct._IO_marker*, %struct._IO_FILE*, i32, i32, i64, i16, i8, [1 x i8], i8*, i64, %struct._IO_codecvt*, %struct._IO_wide_data*, %struct._IO_FILE*, i8*, i64, i32, [20 x i8] }
%struct._IO_marker = type opaque
%struct._IO_codecvt = type opaque
%struct._IO_wide_data = type opaque

@.str = private unnamed_addr constant [3 x i8] c"%d\00", align 1
@.str.1 = private unnamed_addr constant [3 x i8] c"%c\00", align 1
@.str.2 = private unnamed_addr constant [4 x i8] c"%d\0A\00", align 1
@stdin = external local_unnamed_addr global %struct._IO_FILE*, align 8

; Function Attrs: nofree nounwind sspstrong uwtable
define dso_local i32 @main() local_unnamed_addr #0 {
  %1 = alloca i32, align 4
  %2 = alloca [1000 x i32], align 16
  %3 = alloca i8, align 1
  %4 = alloca i8, align 1
  %5 = bitcast i32* %1 to i8*
  call void @llvm.lifetime.start.p0i8(i64 4, i8* nonnull %5) #4
  %6 = bitcast [1000 x i32]* %2 to i8*
  call void @llvm.lifetime.start.p0i8(i64 4000, i8* nonnull %6) #4
  call void @llvm.memset.p0i8.i64(i8* noundef nonnull align 16 dereferenceable(4000) %6, i8 0, i64 4000, i1 false)
  %7 = call i32 (i8*, ...) @__isoc99_scanf(i8* getelementptr inbounds ([3 x i8], [3 x i8]* @.str, i64 0, i64 0), i32* nonnull %1)
  call void @llvm.lifetime.start.p0i8(i64 1, i8* nonnull %3) #4
  store i8 0, i8* %3, align 1, !tbaa !5
  call void @llvm.lifetime.start.p0i8(i64 1, i8* nonnull %4) #4
  store i8 0, i8* %4, align 1, !tbaa !5
  %8 = load %struct._IO_FILE*, %struct._IO_FILE** @stdin, align 8, !tbaa !8
  %9 = call i32 @getc(%struct._IO_FILE* %8) #4
  %10 = load i32, i32* %1, align 4, !tbaa !10
  %11 = icmp slt i32 %10, 1
  br i1 %11, label %59, label %14

12:                                               ; preds = %45
  %13 = icmp slt i32 %47, 1
  br i1 %13, label %59, label %50

14:                                               ; preds = %0, %45
  %15 = phi i64 [ %46, %45 ], [ 1, %0 ]
  %16 = getelementptr inbounds [1000 x i32], [1000 x i32]* %2, i64 0, i64 %15
  store i32 1, i32* %16, align 4, !tbaa !10
  %17 = call i32 (i8*, ...) @__isoc99_scanf(i8* getelementptr inbounds ([3 x i8], [3 x i8]* @.str.1, i64 0, i64 0), i8* nonnull %3)
  %18 = load i8, i8* %3, align 1, !tbaa !5
  %19 = add i8 %18, -65
  %20 = icmp ult i8 %19, 26
  br i1 %20, label %27, label %21

21:                                               ; preds = %14
  %22 = add i8 %18, -97
  %23 = icmp ult i8 %22, 26
  %24 = icmp eq i8 %18, 95
  %25 = or i1 %24, %23
  br i1 %25, label %27, label %26

26:                                               ; preds = %21
  store i32 0, i32* %16, align 4, !tbaa !10
  br label %27

27:                                               ; preds = %14, %21, %26
  br label %28

28:                                               ; preds = %27, %42
  %29 = phi i32 [ %43, %42 ], [ 0, %27 ]
  %30 = call i32 (i8*, ...) @__isoc99_scanf(i8* getelementptr inbounds ([3 x i8], [3 x i8]* @.str.1, i64 0, i64 0), i8* nonnull %4)
  %31 = load i8, i8* %4, align 1, !tbaa !5
  switch i8 %31, label %32 [
    i8 10, label %45
    i8 95, label %42
  ]

32:                                               ; preds = %28
  %33 = add i8 %31, -48
  %34 = icmp ult i8 %33, 10
  %35 = add i8 %31, -65
  %36 = icmp ult i8 %35, 26
  %37 = or i1 %34, %36
  %38 = add i8 %31, -97
  %39 = icmp ult i8 %38, 26
  %40 = select i1 %37, i1 true, i1 %39
  br i1 %40, label %42, label %41

41:                                               ; preds = %32
  store i32 0, i32* %16, align 4, !tbaa !10
  br label %42

42:                                               ; preds = %28, %32, %41
  %43 = add nuw nsw i32 %29, 1
  %44 = icmp eq i32 %43, 90
  br i1 %44, label %45, label %28, !llvm.loop !12

45:                                               ; preds = %28, %42
  %46 = add nuw nsw i64 %15, 1
  %47 = load i32, i32* %1, align 4, !tbaa !10
  %48 = sext i32 %47 to i64
  %49 = icmp slt i64 %15, %48
  br i1 %49, label %14, label %12, !llvm.loop !14

50:                                               ; preds = %12, %50
  %51 = phi i64 [ %55, %50 ], [ 1, %12 ]
  %52 = getelementptr inbounds [1000 x i32], [1000 x i32]* %2, i64 0, i64 %51
  %53 = load i32, i32* %52, align 4, !tbaa !10
  %54 = call i32 (i8*, ...) @printf(i8* nonnull dereferenceable(1) getelementptr inbounds ([4 x i8], [4 x i8]* @.str.2, i64 0, i64 0), i32 %53)
  %55 = add nuw nsw i64 %51, 1
  %56 = load i32, i32* %1, align 4, !tbaa !10
  %57 = sext i32 %56 to i64
  %58 = icmp slt i64 %51, %57
  br i1 %58, label %50, label %59, !llvm.loop !15

59:                                               ; preds = %50, %0, %12
  call void @llvm.lifetime.end.p0i8(i64 1, i8* nonnull %4) #4
  call void @llvm.lifetime.end.p0i8(i64 1, i8* nonnull %3) #4
  call void @llvm.lifetime.end.p0i8(i64 4000, i8* nonnull %6) #4
  call void @llvm.lifetime.end.p0i8(i64 4, i8* nonnull %5) #4
  ret i32 0
}

; Function Attrs: argmemonly mustprogress nofree nosync nounwind willreturn
declare void @llvm.lifetime.start.p0i8(i64 immarg, i8* nocapture) #1

; Function Attrs: argmemonly mustprogress nofree nounwind willreturn writeonly
declare void @llvm.memset.p0i8.i64(i8* nocapture writeonly, i8, i64, i1 immarg) #2

; Function Attrs: nofree nounwind
declare noundef i32 @__isoc99_scanf(i8* nocapture noundef readonly, ...) local_unnamed_addr #3

; Function Attrs: nofree nounwind
declare noundef i32 @printf(i8* nocapture noundef readonly, ...) local_unnamed_addr #3

; Function Attrs: argmemonly mustprogress nofree nosync nounwind willreturn
declare void @llvm.lifetime.end.p0i8(i64 immarg, i8* nocapture) #1

; Function Attrs: nofree nounwind
declare noundef i32 @getc(%struct._IO_FILE* nocapture noundef) local_unnamed_addr #3


!llvm.module.flags = !{!0, !1, !2, !3}
!llvm.ident = !{!4}

!0 = !{i32 1, !"wchar_size", i32 4}
!1 = !{i32 7, !"PIC Level", i32 2}
!2 = !{i32 7, !"PIE Level", i32 2}
!3 = !{i32 7, !"uwtable", i32 1}
!4 = !{!"clang version 13.0.0"}
!5 = !{!6, !6, i64 0}
!6 = !{!"omnipotent char", !7, i64 0}
!7 = !{!"Simple C/C++ TBAA"}
!8 = !{!9, !9, i64 0}
!9 = !{!"any pointer", !6, i64 0}
!10 = !{!11, !11, i64 0}
!11 = !{!"int", !6, i64 0}
!12 = distinct !{!12, !13}
!13 = !{!"llvm.loop.mustprogress"}
!14 = distinct !{!14, !13}
!15 = distinct !{!15, !13}
